target datalayout = "e-m:e-p270:32:32-p271:32:32-p272:64:64-i64:64-i128:128-f80:128-n8:16:32:64-S128"
target triple = "x86_64-pc-linux-gnu"

@.str = private unnamed_addr constant [26 x i8] c"S =%2d  D =%2d  C =%2d   \00", align 1
@.str.1 = private unnamed_addr constant [3 x i8] c"x=\00", align 1
@.str.2 = private unnamed_addr constant [3 x i8] c"%c\00", align 1
@.str.3 = private unnamed_addr constant [5 x i8] c" y=x\00", align 1
@.str.4 = private unnamed_addr constant [2 x i8] c" \00", align 1
@.str.5 = private unnamed_addr constant [2 x i8] c"\0A\00", align 1

; Function Attrs: nounwind uwtable
define void @Dau_DecSortSet(i32 noundef %0, i32 noundef %1, ptr noundef %2, ptr noundef %3, ptr noundef %4) #0 {
  %6 = alloca i32, align 4
  %7 = alloca i32, align 4
  %8 = alloca ptr, align 8
  %9 = alloca ptr, align 8
  %10 = alloca ptr, align 8
  %11 = alloca i32, align 4
  %12 = alloca i32, align 4
  %13 = alloca i32, align 4
  %14 = alloca i32, align 4
  %15 = alloca i32, align 4
  store i32 %0, ptr %6, align 4, !tbaa !8
  store i32 %1, ptr %7, align 4, !tbaa !8
  store ptr %2, ptr %8, align 8, !tbaa !10
  store ptr %3, ptr %9, align 8, !tbaa !10
  store ptr %4, ptr %10, align 8, !tbaa !10
  call void @llvm.lifetime.start.p0(i64 4, ptr %11) #11
  call void @llvm.lifetime.start.p0(i64 4, ptr %12) #11
  store i32 0, ptr %12, align 4, !tbaa !8
  call void @llvm.lifetime.start.p0(i64 4, ptr %13) #11
  store i32 0, ptr %13, align 4, !tbaa !8
  call void @llvm.lifetime.start.p0(i64 4, ptr %14) #11
  store i32 0, ptr %14, align 4, !tbaa !8
  store i32 0, ptr %11, align 4, !tbaa !8
  br label %16

16:                                               ; preds = %47, %5
  %17 = load i32, ptr %11, align 4, !tbaa !8
  %18 = load i32, ptr %7, align 4, !tbaa !8
  %19 = icmp slt i32 %17, %18
  br i1 %19, label %20, label %50

20:                                               ; preds = %16
  call void @llvm.lifetime.start.p0(i64 4, ptr %15) #11
  %21 = load i32, ptr %6, align 4, !tbaa !8
  %22 = load i32, ptr %11, align 4, !tbaa !8
  %23 = shl i32 %22, 1
  %24 = lshr i32 %21, %23
  %25 = and i32 %24, 3
  store i32 %25, ptr %15, align 4, !tbaa !8
  %26 = load i32, ptr %15, align 4, !tbaa !8
  %27 = icmp eq i32 %26, 1
  br i1 %27, label %28, label %31

28:                                               ; preds = %20
  %29 = load i32, ptr %12, align 4, !tbaa !8
  %30 = add nsw i32 %29, 1
  store i32 %30, ptr %12, align 4, !tbaa !8
  br label %46

31:                                               ; preds = %20
  %32 = load i32, ptr %15, align 4, !tbaa !8
  %33 = icmp eq i32 %32, 3
  br i1 %33, label %34, label %37

34:                                               ; preds = %31
  %35 = load i32, ptr %13, align 4, !tbaa !8
  %36 = add nsw i32 %35, 1
  store i32 %36, ptr %13, align 4, !tbaa !8
  br label %45

37:                                               ; preds = %31
  %38 = load i32, ptr %15, align 4, !tbaa !8
  %39 = icmp eq i32 %38, 0
  br i1 %39, label %40, label %43

40:                                               ; preds = %37
  %41 = load i32, ptr %14, align 4, !tbaa !8
  %42 = add nsw i32 %41, 1
  store i32 %42, ptr %14, align 4, !tbaa !8
  br label %44

43:                                               ; preds = %37
  br label %44

44:                                               ; preds = %43, %40
  br label %45

45:                                               ; preds = %44, %34
  br label %46

46:                                               ; preds = %45, %28
  call void @llvm.lifetime.end.p0(i64 4, ptr %15) #11
  br label %47

47:                                               ; preds = %46
  %48 = load i32, ptr %11, align 4, !tbaa !8
  %49 = add nsw i32 %48, 1
  store i32 %49, ptr %11, align 4, !tbaa !8
  br label %16, !llvm.loop !28

50:                                               ; preds = %16
  %51 = load i32, ptr %12, align 4, !tbaa !8
  %52 = load ptr, ptr %8, align 8, !tbaa !10
  store i32 %51, ptr %52, align 4, !tbaa !8
  %53 = load i32, ptr %13, align 4, !tbaa !8
  %54 = load ptr, ptr %9, align 8, !tbaa !10
  store i32 %53, ptr %54, align 4, !tbaa !8
  %55 = load i32, ptr %14, align 4, !tbaa !8
  %56 = load ptr, ptr %10, align 8, !tbaa !10
  store i32 %55, ptr %56, align 4, !tbaa !8
  call void @llvm.lifetime.end.p0(i64 4, ptr %14) #11
  call void @llvm.lifetime.end.p0(i64 4, ptr %13) #11
  call void @llvm.lifetime.end.p0(i64 4, ptr %12) #11
  call void @llvm.lifetime.end.p0(i64 4, ptr %11) #11
  ret void
}

; Function Attrs: nounwind uwtable
define void @Dau_DecPrintSet(i32 noundef %0, i32 noundef %1, i32 noundef %2) #0 {
  %4 = alloca i32, align 4
  %5 = alloca i32, align 4
  %6 = alloca i32, align 4
  %7 = alloca i32, align 4
  %8 = alloca i32, align 4
  %9 = alloca i32, align 4
  %10 = alloca i32, align 4
  %11 = alloca i32, align 4
  %12 = alloca i32, align 4
  %13 = alloca i32, align 4
  store i32 %0, ptr %4, align 4, !tbaa !8
  store i32 %1, ptr %5, align 4, !tbaa !8
  store i32 %2, ptr %6, align 4, !tbaa !8
  call void @llvm.lifetime.start.p0(i64 4, ptr %7) #11
  call void @llvm.lifetime.start.p0(i64 4, ptr %8) #11
  store i32 0, ptr %8, align 4, !tbaa !8
  call void @llvm.lifetime.start.p0(i64 4, ptr %9) #11
  store i32 0, ptr %9, align 4, !tbaa !8
  call void @llvm.lifetime.start.p0(i64 4, ptr %10) #11
  store i32 0, ptr %10, align 4, !tbaa !8
  call void @llvm.lifetime.start.p0(i64 4, ptr %11) #11
  store i32 0, ptr %11, align 4, !tbaa !8
  %14 = load i32, ptr %4, align 4, !tbaa !8
  %15 = load i32, ptr %5, align 4, !tbaa !8
  call void @Dau_DecSortSet(i32 noundef %14, i32 noundef %15, ptr noundef %9, ptr noundef %10, ptr noundef %11)
  %16 = load i32, ptr %10, align 4, !tbaa !8
  %17 = load i32, ptr %9, align 4, !tbaa !8
  %18 = load i32, ptr %10, align 4, !tbaa !8
  %19 = add nsw i32 %17, %18
  %20 = load i32, ptr %10, align 4, !tbaa !8
  %21 = load i32, ptr %11, align 4, !tbaa !8
  %22 = add nsw i32 %20, %21
  %23 = add nsw i32 %22, 1
  %24 = call i32 (ptr, ...) @printf(ptr noundef @.str, i32 noundef %16, i32 noundef %19, i32 noundef %23)
  %25 = call i32 (ptr, ...) @printf(ptr noundef @.str.1)
  store i32 0, ptr %7, align 4, !tbaa !8
  br label %26

26:                                               ; preds = %56, %3
  %27 = load i32, ptr %7, align 4, !tbaa !8
  %28 = load i32, ptr %5, align 4, !tbaa !8
  %29 = icmp slt i32 %27, %28
  br i1 %29, label %30, label %59

30:                                               ; preds = %26
  call void @llvm.lifetime.start.p0(i64 4, ptr %12) #11
  %31 = load i32, ptr %4, align 4, !tbaa !8
  %32 = load i32, ptr %7, align 4, !tbaa !8
  %33 = shl i32 %32, 1
  %34 = lshr i32 %31, %33
  %35 = and i32 %34, 3
  store i32 %35, ptr %12, align 4, !tbaa !8
  %36 = load i32, ptr %12, align 4, !tbaa !8
  %37 = icmp eq i32 %36, 1
  br i1 %37, label %38, label %44

38:                                               ; preds = %30
  %39 = load i32, ptr %7, align 4, !tbaa !8
  %40 = add nsw i32 97, %39
  %41 = call i32 (ptr, ...) @printf(ptr noundef @.str.2, i32 noundef %40)
  %42 = load i32, ptr %8, align 4, !tbaa !8
  %43 = add nsw i32 %42, 1
  store i32 %43, ptr %8, align 4, !tbaa !8
  br label %55

44:                                               ; preds = %30
  %45 = load i32, ptr %12, align 4, !tbaa !8
  %46 = icmp eq i32 %45, 3
  br i1 %46, label %47, label %53

47:                                               ; preds = %44
  %48 = load i32, ptr %7, align 4, !tbaa !8
  %49 = add nsw i32 65, %48
  %50 = call i32 (ptr, ...) @printf(ptr noundef @.str.2, i32 noundef %49)
  %51 = load i32, ptr %8, align 4, !tbaa !8
  %52 = add nsw i32 %51, 1
  store i32 %52, ptr %8, align 4, !tbaa !8
  br label %54

53:                                               ; preds = %44
  br label %54

54:                                               ; preds = %53, %47
  br label %55

55:                                               ; preds = %54, %38
  call void @llvm.lifetime.end.p0(i64 4, ptr %12) #11
  br label %56

56:                                               ; preds = %55
  %57 = load i32, ptr %7, align 4, !tbaa !8
  %58 = add nsw i32 %57, 1
  store i32 %58, ptr %7, align 4, !tbaa !8
  br label %26, !llvm.loop !29

59:                                               ; preds = %26
  %60 = call i32 (ptr, ...) @printf(ptr noundef @.str.3)
  store i32 0, ptr %7, align 4, !tbaa !8
  br label %61

61:                                               ; preds = %90, %59
  %62 = load i32, ptr %7, align 4, !tbaa !8
  %63 = load i32, ptr %5, align 4, !tbaa !8
  %64 = icmp slt i32 %62, %63
  br i1 %64, label %65, label %93

65:                                               ; preds = %61
  call void @llvm.lifetime.start.p0(i64 4, ptr %13) #11
  %66 = load i32, ptr %4, align 4, !tbaa !8
  %67 = load i32, ptr %7, align 4, !tbaa !8
  %68 = shl i32 %67, 1
  %69 = lshr i32 %66, %68
  %70 = and i32 %69, 3
  store i32 %70, ptr %13, align 4, !tbaa !8
  %71 = load i32, ptr %13, align 4, !tbaa !8
  %72 = icmp eq i32 %71, 0
  br i1 %72, label %73, label %79

73:                                               ; preds = %65
  %74 = load i32, ptr %7, align 4, !tbaa !8
  %75 = add nsw i32 97, %74
  %76 = call i32 (ptr, ...) @printf(ptr noundef @.str.2, i32 noundef %75)
  %77 = load i32, ptr %8, align 4, !tbaa !8
  %78 = add nsw i32 %77, 1
  store i32 %78, ptr %8, align 4, !tbaa !8
  br label %89

79:                                               ; preds = %65
  %80 = load i32, ptr %13, align 4, !tbaa !8
  %81 = icmp eq i32 %80, 3
  br i1 %81, label %82, label %88

82:                                               ; preds = %79
  %83 = load i32, ptr %7, align 4, !tbaa !8
  %84 = add nsw i32 65, %83
  %85 = call i32 (ptr, ...) @printf(ptr noundef @.str.2, i32 noundef %84)
  %86 = load i32, ptr %8, align 4, !tbaa !8
  %87 = add nsw i32 %86, 1
  store i32 %87, ptr %8, align 4, !tbaa !8
  br label %88

88:                                               ; preds = %82, %79
  br label %89

89:                                               ; preds = %88, %73
  call void @llvm.lifetime.end.p0(i64 4, ptr %13) #11
  br label %90

90:                                               ; preds = %89
  %91 = load i32, ptr %7, align 4, !tbaa !8
  %92 = add nsw i32 %91, 1
  store i32 %92, ptr %7, align 4, !tbaa !8
  br label %61, !llvm.loop !30

93:                                               ; preds = %61
  br label %94

94:                                               ; preds = %99, %93
  %95 = load i32, ptr %8, align 4, !tbaa !8
  %96 = icmp slt i32 %95, 15
  br i1 %96, label %97, label %102

97:                                               ; preds = %94
  %98 = call i32 (ptr, ...) @printf(ptr noundef @.str.4)
  br label %99

99:                                               ; preds = %97
  %100 = load i32, ptr %8, align 4, !tbaa !8
  %101 = add nsw i32 %100, 1
  store i32 %101, ptr %8, align 4, !tbaa !8
  br label %94, !llvm.loop !31

102:                                              ; preds = %94
  %103 = load i32, ptr %6, align 4, !tbaa !8
  %104 = icmp ne i32 %103, 0
  br i1 %104, label %105, label %107

105:                                              ; preds = %102
  %106 = call i32 (ptr, ...) @printf(ptr noundef @.str.5)
  br label %107

107:                                              ; preds = %105, %102
  call void @llvm.lifetime.end.p0(i64 4, ptr %11) #11
  call void @llvm.lifetime.end.p0(i64 4, ptr %10) #11
  call void @llvm.lifetime.end.p0(i64 4, ptr %9) #11
  call void @llvm.lifetime.end.p0(i64 4, ptr %8) #11
  call void @llvm.lifetime.end.p0(i64 4, ptr %7) #11
  ret void
}