; Function Attrs: nofree nounwind uwtable
define void @Dau_DecPrintSet(i32 noundef %0, i32 noundef %1, i32 noundef %2) local_unnamed_addr #6 {
  %4 = icmp sgt i32 %1, 0
  br i1 %4, label %.lr.ph.i, label %.preheader.thread.critedge

.lr.ph.i:                                         ; preds = %3, %14
  %.028.i = phi i32 [ %15, %14 ], [ 0, %3 ]
  %.01627.i = phi i32 [ %.1.i, %14 ], [ 0, %3 ]
  %.01726.i = phi i32 [ %.118.i, %14 ], [ 0, %3 ]
  %.01925.i = phi i32 [ %.120.i, %14 ], [ 0, %3 ]
  %5 = shl nuw i32 %.028.i, 1
  %6 = lshr i32 %0, %5
  %7 = and i32 %6, 3
  switch i32 %7, label %default.unreachable [
    i32 1, label %8
    i32 3, label %10
    i32 0, label %12
    i32 2, label %14
  ]

8:                                                ; preds = %.lr.ph.i
  %9 = add nsw i32 %.01925.i, 1
  br label %14

10:                                               ; preds = %.lr.ph.i
  %11 = add nsw i32 %.01726.i, 1
  br label %14

12:                                               ; preds = %.lr.ph.i
  %13 = add nsw i32 %.01627.i, 1
  br label %14

default.unreachable:                              ; preds = %.lr.ph.i
  unreachable

14:                                               ; preds = %12, %10, %8, %.lr.ph.i
  %.120.i = phi i32 [ %9, %8 ], [ %.01925.i, %10 ], [ %.01925.i, %12 ], [ %.01925.i, %.lr.ph.i ]
  %.118.i = phi i32 [ %.01726.i, %8 ], [ %11, %10 ], [ %.01726.i, %12 ], [ %.01726.i, %.lr.ph.i ]
  %.1.i = phi i32 [ %.01627.i, %8 ], [ %.01627.i, %10 ], [ %13, %12 ], [ %.01627.i, %.lr.ph.i ]
  %15 = add nuw nsw i32 %.028.i, 1
  %exitcond.not.i = icmp eq i32 %15, %1
  br i1 %exitcond.not.i, label %Dau_DecSortSet.exit, label %.lr.ph.i, !llvm.loop !27

Dau_DecSortSet.exit:                              ; preds = %14
  %16 = add nsw i32 %.118.i, %.120.i
  %17 = add i32 %.118.i, 1
  %18 = add i32 %17, %.1.i
  %19 = tail call i32 (ptr, ...) @printf(ptr noundef nonnull dereferenceable(1) @.str, i32 noundef %.118.i, i32 noundef %16, i32 noundef %18)
  %20 = tail call i32 (ptr, ...) @printf(ptr noundef nonnull dereferenceable(1) @.str.1)
  br label %.lr.ph

.preheader.thread.critedge:                       ; preds = %3
  %21 = tail call i32 (ptr, ...) @printf(ptr noundef nonnull dereferenceable(1) @.str, i32 noundef 0, i32 noundef 0, i32 noundef 1)
  %22 = tail call i32 (ptr, ...) @printf(ptr noundef nonnull dereferenceable(1) @.str.1)
  %23 = tail call i32 (ptr, ...) @printf(ptr noundef nonnull dereferenceable(1) @.str.3)
  br label %.lr.ph47.preheader

.lr.ph:                                           ; preds = %Dau_DecSortSet.exit, %30
  %.040 = phi i32 [ %31, %30 ], [ 0, %Dau_DecSortSet.exit ]
  %.02739 = phi i32 [ %.128, %30 ], [ 0, %Dau_DecSortSet.exit ]
  %24 = shl nuw i32 %.040, 1
  %25 = lshr i32 %0, %24
  %26 = and i32 %25, 3
  switch i32 %26, label %30 [
    i32 1, label %.sink.split
    i32 3, label %27
  ]

27:                                               ; preds = %.lr.ph
  br label %.sink.split

.sink.split:                                      ; preds = %.lr.ph, %27
  %.sink54 = phi i32 [ 65, %27 ], [ 97, %.lr.ph ]
  %28 = add nuw nsw i32 %.040, %.sink54
  %putchar35 = tail call i32 @putchar(i32 %28)
  %29 = add nsw i32 %.02739, 1
  br label %30

30:                                               ; preds = %.sink.split, %.lr.ph
  %.128 = phi i32 [ %.02739, %.lr.ph ], [ %29, %.sink.split ]
  %31 = add nuw nsw i32 %.040, 1
  %exitcond.not = icmp eq i32 %31, %1
  br i1 %exitcond.not, label %._crit_edge, label %.lr.ph, !llvm.loop !28

._crit_edge:                                      ; preds = %30
  %32 = tail call i32 (ptr, ...) @printf(ptr noundef nonnull dereferenceable(1) @.str.3)
  br label %.lr.ph44

.preheader:                                       ; preds = %40
  %33 = icmp slt i32 %.3, 15
  br i1 %33, label %.lr.ph47.preheader, label %._crit_edge48

.lr.ph47.preheader:                               ; preds = %.preheader.thread.critedge, %.preheader
  %.446.ph = phi i32 [ %.3, %.preheader ], [ 0, %.preheader.thread.critedge ]
  br label %.lr.ph47

.lr.ph44:                                         ; preds = %._crit_edge, %40
  %.142 = phi i32 [ %41, %40 ], [ 0, %._crit_edge ]
  %.241 = phi i32 [ %.3, %40 ], [ %.128, %._crit_edge ]
  %34 = shl nuw i32 %.142, 1
  %35 = lshr i32 %0, %34
  %36 = and i32 %35, 3
  switch i32 %36, label %40 [
    i32 0, label %.sink.split55
    i32 3, label %37
  ]

37:                                               ; preds = %.lr.ph44
  br label %.sink.split55

.sink.split55:                                    ; preds = %.lr.ph44, %37
  %.sink56 = phi i32 [ 65, %37 ], [ 97, %.lr.ph44 ]
  %38 = add nuw nsw i32 %.142, %.sink56
  %putchar33 = tail call i32 @putchar(i32 %38)
  %39 = add nsw i32 %.241, 1
  br label %40

40:                                               ; preds = %.sink.split55, %.lr.ph44
  %.3 = phi i32 [ %.241, %.lr.ph44 ], [ %39, %.sink.split55 ]
  %41 = add nuw nsw i32 %.142, 1
  %exitcond49.not = icmp eq i32 %41, %1
  br i1 %exitcond49.not, label %.preheader, label %.lr.ph44, !llvm.loop !29

.lr.ph47:                                         ; preds = %.lr.ph47.preheader, %.lr.ph47
  %.446 = phi i32 [ %42, %.lr.ph47 ], [ %.446.ph, %.lr.ph47.preheader ]
  %putchar32 = tail call i32 @putchar(i32 32)
  %42 = add i32 %.446, 1
  %exitcond50.not = icmp eq i32 %42, 15
  br i1 %exitcond50.not, label %._crit_edge48, label %.lr.ph47, !llvm.loop !30

._crit_edge48:                                    ; preds = %.lr.ph47, %.preheader
  %.not = icmp eq i32 %2, 0
  br i1 %.not, label %44, label %43

43:                                               ; preds = %._crit_edge48
  %putchar = tail call i32 @putchar(i32 10)
  br label %44

44:                                               ; preds = %43, %._crit_edge48
  ret void
}